; Function Attrs: mustprogress uwtable
define noalias noundef nonnull ptr @lean_io_prim_handle_truncate(ptr noundef readonly captures(none) %0, ptr noundef readnone captures(none) %1) local_unnamed_addr #0 {
  %3 = getelementptr i8, ptr %0, i64 16
  %.val = load ptr, ptr %3, align 8, !tbaa !39
  %4 = tail call i32 @fileno(ptr noundef %.val) #27
  %5 = tail call i64 @ftello(ptr noundef %.val)
  %6 = tail call i32 @ftruncate(i32 noundef %4, i64 noundef %5) #27
  %.not = icmp eq i32 %6, 0
  br i1 %.not, label %7, label %11

7:                                                ; preds = %2
  tail call void @lean_inc_heartbeat()
  %8 = tail call noalias ptr @mi_malloc_small(i64 noundef 24) #27
  %9 = icmp eq ptr %8, null
  br i1 %9, label %10, label %_ZN4lean15io_result_mk_okEP11lean_object.exit

10:                                               ; preds = %7
  tail call void @lean_internal_panic_out_of_memory() #28
  unreachable

11:                                               ; preds = %2
  %12 = tail call ptr @__errno_location() #30
  %13 = load i32, ptr %12, align 4, !tbaa !44
  %14 = tail call noundef ptr @lean_decode_io_error(i32 noundef %13, ptr noundef null)
  tail call void @lean_inc_heartbeat()
  %15 = tail call noalias ptr @mi_malloc_small(i64 noundef 24) #27
  %16 = icmp eq ptr %15, null
  br i1 %16, label %17, label %_ZN4lean15io_result_mk_okEP11lean_object.exit

17:                                               ; preds = %11
  tail call void @lean_internal_panic_out_of_memory() #28
  unreachable

_ZN4lean15io_result_mk_okEP11lean_object.exit:    ; preds = %11, %7
  %.sink10 = phi ptr [ %8, %7 ], [ %15, %11 ]
  %.sink7 = phi i32 [ 131096, %7 ], [ 16908312, %11 ]
  %.sink = phi ptr [ inttoptr (i64 1 to ptr), %7 ], [ %14, %11 ]
  %18 = getelementptr inbounds nuw i8, ptr %.sink10, i64 4
  store i32 1, ptr %.sink10, align 4, !tbaa !7
  store i32 %.sink7, ptr %18, align 4
  %19 = getelementptr inbounds nuw i8, ptr %.sink10, i64 8
  store ptr %.sink, ptr %19, align 8, !tbaa !3
  %20 = getelementptr inbounds nuw i8, ptr %.sink10, i64 16
  store ptr inttoptr (i64 1 to ptr), ptr %20, align 8, !tbaa !3
  ret ptr %.sink10
}